target datalayout = "e-m:e-p270:32:32-p271:32:32-p272:64:64-i64:64-i128:128-f80:128-n8:16:32:64-S128"
target triple = "x86_64-pc-linux-gnu"

%union.pthread_mutex_t = type { %struct.__pthread_mutex_s }
%struct.__pthread_mutex_s = type { i32, i32, i32, i32, i32, i16, i16, %struct.__pthread_internal_list }
%struct.__pthread_internal_list = type { ptr, ptr }
%struct.ccan_list_head = type { %struct.ccan_list_node }
%struct.ccan_list_node = type { ptr, ptr }
%struct.rb_thread_struct = type { %struct.ccan_list_node, i64, ptr, ptr, ptr, ptr, %struct.rb_thread_sched_item, i8, i32, i64, ptr, i64, i64, i8, i8, i32, ptr, i64, i64, i64, i64, %union.pthread_mutex_t, %struct.rb_unblock_callback, i64, ptr, %struct.ccan_list_head, ptr, %union.anon, i32, i64, ptr, i64, i32, i64, ptr, %struct.rb_ext_config }
%struct.rb_thread_sched_item = type { %struct.anon.7, %struct.rb_thread_sched_waiting, i8, i8, ptr, ptr }
%struct.anon.7 = type { %struct.ccan_list_node, %struct.ccan_list_node, %struct.ccan_list_node, %struct.ccan_list_node, %struct.ccan_list_node }
%struct.rb_thread_sched_waiting = type { i32, %struct.anon.8, %struct.ccan_list_node }
%struct.anon.8 = type { i64, i32, i32 }
%struct.rb_unblock_callback = type { ptr, ptr }
%union.anon = type { %struct.anon.9 }
%struct.anon.9 = type { i64, i64, i32 }
%struct.rb_ext_config = type { i8 }
%struct.rb_execution_context_struct = type { ptr, i64, ptr, ptr, i32, i32, ptr, ptr, ptr, i64, i64, i64, ptr, i64, ptr, i64, i64, i8, i8, i64, %struct.anon.11 }
%struct.anon.11 = type { ptr, ptr, i64, [1 x %struct.__jmp_buf_tag] }
%struct.__jmp_buf_tag = type { [8 x i64], i32, %struct.__sigset_t }
%struct.__sigset_t = type { [16 x i64] }
%union.pthread_cond_t = type { %struct.__pthread_cond_s }
%struct.__pthread_cond_s = type { %union.__atomic_wide_counter, %union.__atomic_wide_counter, [2 x i32], [2 x i32], i32, i32, [2 x i32] }
%union.__atomic_wide_counter = type { i64 }
%struct.rb_vm_struct = type { i64, %struct.anon.0, ptr, i64, %struct.ccan_list_head, i32, i8, i64, ptr, [5 x i64], i64, i64, i64, i64, i64, i64, i64, i64, i64, ptr, ptr, ptr, %struct.anon.4, ptr, i32, %struct.ccan_list_head, %union.pthread_mutex_t, i64, i64, i64, i64, i32, %struct.anon.5, ptr, ptr, ptr, ptr, ptr, ptr, ptr, ptr, i64, [1023 x ptr], %struct.anon.6 }
%struct.anon.0 = type { %struct.ccan_list_head, i32, i32, ptr, ptr, %struct.anon.1, %struct.anon.3 }
%struct.anon.1 = type { %union.pthread_mutex_t, ptr, i32, %union.pthread_cond_t, i8 }
%struct.anon.3 = type { %union.pthread_mutex_t, ptr, i8, %union.pthread_cond_t, i32, i32, i32, i32, %struct.ccan_list_head, i32, %struct.ccan_list_head, %struct.ccan_list_head, %struct.ccan_list_head, i8, %union.pthread_cond_t, %union.pthread_cond_t, i8, i32, i32 }
%struct.anon.4 = type { [65 x i64] }
%struct.anon.5 = type { ptr, ptr }
%struct.anon.6 = type { i64, i64, i64, i64 }

@.str.14 = private unnamed_addr constant [18 x i8] c"pthread_cond_wait\00", align 1

; Function Attrs: nounwind sspstrong uwtable
define internal void @ractor_sched_set_locked(ptr noundef %0, ptr noundef %1) #0 {
  %3 = alloca ptr, align 8
  %4 = alloca ptr, align 8
  store ptr %0, ptr %3, align 8, !tbaa !50
  store ptr %1, ptr %4, align 8, !tbaa !61
  ret void
}

; Function Attrs: nounwind sspstrong uwtable
define dso_local void @rb_native_cond_wait(ptr noundef %0, ptr noundef %1) #0 {
  %3 = alloca ptr, align 8
  %4 = alloca ptr, align 8
  %5 = alloca i32, align 4
  store ptr %0, ptr %3, align 8, !tbaa !14
  store ptr %1, ptr %4, align 8, !tbaa !14
  call void @llvm.lifetime.start.p0(i64 4, ptr %5) #16
  %6 = load ptr, ptr %3, align 8, !tbaa !14
  %7 = load ptr, ptr %4, align 8, !tbaa !14
  %8 = call i32 @pthread_cond_wait(ptr noundef %6, ptr noundef %7)
  store i32 %8, ptr %5, align 4, !tbaa !15
  %9 = load i32, ptr %5, align 4, !tbaa !15
  %10 = icmp ne i32 %9, 0
  br i1 %10, label %11, label %13

11:                                               ; preds = %2
  %12 = load i32, ptr %5, align 4, !tbaa !15
  call void @rb_bug_errno(ptr noundef @.str.14, i32 noundef %12) #35
  unreachable

13:                                               ; preds = %2
  call void @llvm.lifetime.end.p0(i64 4, ptr %5) #16
  ret void
}

; Function Attrs: nounwind sspstrong uwtable
define internal void @ractor_sched_set_unlocked(ptr noundef %0, ptr noundef %1) #0 {
  %3 = alloca ptr, align 8
  %4 = alloca ptr, align 8
  store ptr %0, ptr %3, align 8, !tbaa !50
  store ptr %1, ptr %4, align 8, !tbaa !61
  ret void
}

; Function Attrs: nounwind sspstrong uwtable
define internal void @ractor_sched_barrier_join_wait_locked(ptr noundef %0, ptr noundef %1) #0 {
  %3 = alloca ptr, align 8
  %4 = alloca ptr, align 8
  %5 = alloca i32, align 4
  %6 = alloca ptr, align 8
  store ptr %0, ptr %3, align 8, !tbaa !50
  store ptr %1, ptr %4, align 8, !tbaa !12
  call void @llvm.lifetime.start.p0(i64 4, ptr %5) #16
  %7 = load ptr, ptr %3, align 8, !tbaa !50
  %8 = getelementptr inbounds nuw %struct.rb_vm_struct, ptr %7, i32 0, i32 1
  %9 = getelementptr inbounds nuw %struct.anon.0, ptr %8, i32 0, i32 6
  %10 = getelementptr inbounds nuw %struct.anon.3, ptr %9, i32 0, i32 18
  %11 = load i32, ptr %10, align 8, !tbaa !128
  store i32 %11, ptr %5, align 4, !tbaa !15
  br label %12

12:                                               ; preds = %36, %2
  %13 = load ptr, ptr %3, align 8, !tbaa !50
  %14 = getelementptr inbounds nuw %struct.rb_vm_struct, ptr %13, i32 0, i32 1
  %15 = getelementptr inbounds nuw %struct.anon.0, ptr %14, i32 0, i32 6
  %16 = getelementptr inbounds nuw %struct.anon.3, ptr %15, i32 0, i32 18
  %17 = load i32, ptr %16, align 8, !tbaa !128
  %18 = load i32, ptr %5, align 4, !tbaa !15
  %19 = icmp eq i32 %17, %18
  br i1 %19, label %20, label %52

20:                                               ; preds = %12
  br label %21

21:                                               ; preds = %20
  %22 = load ptr, ptr %4, align 8, !tbaa !12
  %23 = getelementptr inbounds nuw %struct.rb_thread_struct, ptr %22, i32 0, i32 5
  %24 = load ptr, ptr %23, align 8, !tbaa !75
  %25 = getelementptr inbounds nuw %struct.rb_execution_context_struct, ptr %24, i32 0, i32 20
  %26 = getelementptr inbounds nuw %struct.anon.11, ptr %25, i32 0, i32 3
  %27 = getelementptr inbounds [1 x %struct.__jmp_buf_tag], ptr %26, i64 0, i64 0
  %28 = call i32 @_setjmp(ptr noundef %27) #36
  %29 = load ptr, ptr %4, align 8, !tbaa !12
  %30 = getelementptr inbounds nuw %struct.rb_thread_struct, ptr %29, i32 0, i32 5
  %31 = load ptr, ptr %30, align 8, !tbaa !75
  %32 = getelementptr inbounds nuw %struct.rb_execution_context_struct, ptr %31, i32 0, i32 20
  %33 = getelementptr inbounds nuw %struct.anon.11, ptr %32, i32 0, i32 1
  %34 = call ptr asm sideeffect "movq\09%rsp, $0", "=r,~{dirflag},~{fpsr},~{flags}"() #16, !srcloc !135
  store ptr %34, ptr %33, align 8, !tbaa !85
  br label %35

35:                                               ; preds = %21
  br label %36

36:                                               ; preds = %35
  call void @llvm.lifetime.start.p0(i64 8, ptr %6) #16
  %37 = load ptr, ptr %4, align 8, !tbaa !12
  %38 = getelementptr inbounds nuw %struct.rb_thread_struct, ptr %37, i32 0, i32 2
  %39 = load ptr, ptr %38, align 8, !tbaa !27
  store ptr %39, ptr %6, align 8, !tbaa !61
  %40 = load ptr, ptr %3, align 8, !tbaa !50
  %41 = load ptr, ptr %6, align 8, !tbaa !61
  call void @ractor_sched_set_unlocked(ptr noundef %40, ptr noundef %41)
  %42 = load ptr, ptr %3, align 8, !tbaa !50
  %43 = getelementptr inbounds nuw %struct.rb_vm_struct, ptr %42, i32 0, i32 1
  %44 = getelementptr inbounds nuw %struct.anon.0, ptr %43, i32 0, i32 6
  %45 = getelementptr inbounds nuw %struct.anon.3, ptr %44, i32 0, i32 15
  %46 = load ptr, ptr %3, align 8, !tbaa !50
  %47 = getelementptr inbounds nuw %struct.rb_vm_struct, ptr %46, i32 0, i32 1
  %48 = getelementptr inbounds nuw %struct.anon.0, ptr %47, i32 0, i32 6
  %49 = getelementptr inbounds nuw %struct.anon.3, ptr %48, i32 0, i32 0
  call void @rb_native_cond_wait(ptr noundef %45, ptr noundef %49)
  %50 = load ptr, ptr %3, align 8, !tbaa !50
  %51 = load ptr, ptr %6, align 8, !tbaa !61
  call void @ractor_sched_set_locked(ptr noundef %50, ptr noundef %51)
  call void @llvm.lifetime.end.p0(i64 8, ptr %6) #16
  br label %12, !llvm.loop !136

52:                                               ; preds = %12
  call void @llvm.lifetime.end.p0(i64 4, ptr %5) #16
  ret void
}