; Function Attrs: nounwind sspstrong uwtable
define internal fastcc void @ractor_sched_barrier_join_wait_locked(ptr noundef %0, ptr noundef readonly captures(none) %1) unnamed_addr #0 {
  %3 = getelementptr inbounds nuw i8, ptr %0, i64 160
  %4 = getelementptr inbounds nuw i8, ptr %0, i64 464
  %5 = load i32, ptr %4, align 8, !tbaa !125
  %6 = getelementptr inbounds nuw i8, ptr %1, i64 48
  %7 = getelementptr inbounds nuw i8, ptr %0, i64 408
  br label %rb_native_cond_wait.exit

rb_native_cond_wait.exit:                         ; preds = %10, %2
  %8 = load i32, ptr %4, align 8, !tbaa !125
  %9 = icmp eq i32 %8, %5
  br i1 %9, label %10, label %19

10:                                               ; preds = %rb_native_cond_wait.exit
  %11 = load ptr, ptr %6, align 8, !tbaa !74
  %12 = getelementptr inbounds nuw i8, ptr %11, i64 168
  %13 = call i32 @_setjmp(ptr noundef nonnull %12) #44
  %14 = load ptr, ptr %6, align 8, !tbaa !74
  %15 = getelementptr inbounds nuw i8, ptr %14, i64 152
  %16 = call ptr asm sideeffect "movq\09%rsp, $0", "=r,~{dirflag},~{fpsr},~{flags}"() #17, !srcloc !127
  store ptr %16, ptr %15, align 8, !tbaa !77
  %17 = call i32 @pthread_cond_wait(ptr noundef nonnull %7, ptr noundef nonnull %3) #17
  %.not.i = icmp eq i32 %17, 0
  br i1 %.not.i, label %rb_native_cond_wait.exit, label %18, !llvm.loop !128

18:                                               ; preds = %10
  call void @rb_bug_errno(ptr noundef nonnull @.str.14, i32 noundef %17) #38
  unreachable

19:                                               ; preds = %rb_native_cond_wait.exit
  ret void
}